; Function Attrs: nounwind uwtable
define internal void @registryHandleGlobalRemove(ptr readnone captures(none) %0, ptr readnone captures(none) %1, i32 noundef %2) #0 {
  %4 = load i32, ptr getelementptr inbounds nuw (i8, ptr @_glfw, i64 1928), align 8, !tbaa !213
  %5 = icmp sgt i32 %4, 0
  br i1 %5, label %.critedge.lr.ph, label %.loopexit

.critedge.lr.ph:                                  ; preds = %3
  %6 = load ptr, ptr getelementptr inbounds nuw (i8, ptr @_glfw, i64 1920), align 8, !tbaa !214
  %wide.trip.count = zext nneg i32 %4 to i64
  br label %.critedge

7:                                                ; preds = %.critedge
  %indvars.iv.next = add nuw nsw i64 %indvars.iv, 1
  %exitcond.not = icmp eq i64 %indvars.iv.next, %wide.trip.count
  br i1 %exitcond.not, label %.loopexit, label %.critedge

.critedge:                                        ; preds = %.critedge.lr.ph, %7
  %indvars.iv = phi i64 [ 0, %.critedge.lr.ph ], [ %indvars.iv.next, %7 ]
  %8 = getelementptr inbounds nuw ptr, ptr %6, i64 %indvars.iv
  %9 = load ptr, ptr %8, align 8, !tbaa !215
  %10 = getelementptr inbounds nuw i8, ptr %9, i64 264
  %11 = load i32, ptr %10, align 8, !tbaa !217
  %.not = icmp eq i32 %11, %2
  br i1 %.not, label %12, label %7

12:                                               ; preds = %.critedge
  tail call void @_glfwInputMonitor(ptr noundef nonnull %9, i32 noundef 262146, i32 noundef 0) #9
  br label %.loopexit

.loopexit:                                        ; preds = %7, %3, %12
  ret void
}